(dp1
S'nucleotide_conversions'
p2
(dp3
S'M_didp_n_'
p4
(dp5
S'M_ditp_n_'
p6
(lp7
g4
asS'M_idp_n_'
p8
(lp9
g4
asS'M_itp_n_'
p10
(lp11
g4
assS'M_dtmp_c_'
p12
(dp13
S'M_dtdp_c_'
p14
(lp15
g12
asS'M_dttp_c_'
p16
(lp17
g12
assS'M_cmp_n_'
p18
(dp19
S'M_dctp_n_'
p20
(lp21
g18
asS'M_dcmp_n_'
p22
(lp23
g18
asS'M_ctp_n_'
p24
(lp25
g18
asS'M_dcdp_n_'
p26
(lp27
g18
asS'M_cdp_n_'
p28
(lp29
g18
assS'M_amp_g_'
p30
(dp31
S'M_adp_g_'
p32
(lp33
g30
asS'M_atp_g_'
p34
(lp35
g30
asS'M_camp_g_'
p36
(lp37
g30
assS'M_dtmp_e_'
p38
(dp39
S'M_dtdp_e_'
p40
(lp41
g38
asS'M_dttp_e_'
p42
(lp43
g38
assS'M_dadp_n_'
p44
(dp45
S'M_datp_n_'
p46
(lp47
g44
asS'M_adp_n_'
p48
(lp49
g44
asS'M_atp_n_'
p50
(lp51
g44
assS'M_cmp_c_'
p52
(dp53
S'M_cdp_c_'
p54
(lp55
g52
asS'M_ctp_c_'
p56
(lp57
g52
asS'M_dcmp_c_'
p58
(lp59
g52
asS'M_dcdp_c_'
p60
(lp61
g52
asS'M_dctp_c_'
p62
(lp63
g52
assS'M_amp_r_'
p64
(dp65
S'M_adp_r_'
p66
(lp67
g64
asS'M_atp_r_'
p68
(lp69
g64
assS'M_amp_e_'
p70
(dp71
S'M_adp_e_'
p72
(lp73
g70
asS'M_atp_e_'
p74
(lp75
g70
asS'M_camp_e_'
p76
(lp77
g70
assS'M_gmp_e_'
p78
(dp79
S'M_35cgmp_e_'
p80
(lp81
g78
asS'M_gdp_e_'
p82
(lp83
g78
asS'M_dgmp_e_'
p84
(lp85
g78
asS'M_gtp_e_'
p86
(lp87
g78
asS'M_dgtp_e_'
p88
(lp89
g78
assS'M_amp_l_'
p90
(dp91
S'M_atp_l_'
p92
(lp93
g90
asS'M_adp_l_'
p94
(lp95
g90
asS'M_damp_l_'
p96
(lp97
g90
assS'M_ump_c_'
p98
(dp99
S'M_udp_c_'
p100
(lp101
g98
asS'M_dutp_c_'
p102
(lp103
g98
asS'M_utp_c_'
p104
(lp105
g98
asS'M_dump_c_'
p106
(lp107
g98
asS'M_dudp_c_'
p108
(lp109
g98
assS'M_gmp_l_'
p110
(dp111
S'M_dgmp_l_'
p112
(lp113
g110
assS'M_amp_m_'
p114
(dp115
S'M_adp_m_'
p116
(lp117
g114
asS'M_atp_m_'
p118
(lp119
g114
asS'M_dadp_m_'
p120
(lp121
g114
asS'M_datp_m_'
p122
(lp123
g114
assS'M_gmp_m_'
p124
(dp125
S'M_dgtp_m_'
p126
(lp127
g124
asS'M_gdp_m_'
p128
(lp129
g124
asS'M_dgmp_m_'
p130
(lp131
g124
asS'M_gtp_m_'
p132
(lp133
g124
asS'M_dgdp_m_'
p134
(lp135
g124
assS'M_cmp_l_'
p136
(dp137
S'M_dcmp_l_'
p138
(lp139
g136
assS'M_cmp_m_'
p140
(dp141
S'M_dcmp_m_'
p142
(lp143
g140
asS'M_dcdp_m_'
p144
(lp145
g140
asS'M_dctp_m_'
p146
(lp147
g140
asS'M_ctp_m_'
p148
(lp149
g140
asS'M_cdp_m_'
p150
(lp151
g140
assS'M_amp_x_'
p152
(dp153
S'M_atp_x_'
p154
(lp155
g152
asS'M_adp_x_'
p156
(lp157
g152
assS'M_amp_c_'
p158
(dp159
S'M_dadp_c_'
p160
(lp161
g158
asS'M_atp_c_'
p162
(lp163
g158
asS'M_damp_c_'
p164
(lp165
g158
asS'M_camp_c_'
p166
(lp167
g158
asS'M_datp_c_'
p168
(lp169
g158
asS'M_adp_c_'
p170
(lp171
g158
assS'M_ump_r_'
p172
(dp173
S'M_udp_r_'
p174
(lp175
g172
assS'M_dtmp_n_'
p176
(dp177
S'M_dttp_n_'
p178
(lp179
g176
asS'M_dtdp_n_'
p180
(lp181
g176
assS'M_ump_e_'
p182
(dp183
S'M_utp_e_'
p184
(lp185
g182
asS'M_udp_e_'
p186
(lp187
g182
assS'M_imp_c_'
p188
(dp189
S'M_dimp_c_'
p190
(lp191
g188
asS'M_didp_c_'
p192
(lp193
g188
asS'M_ditp_c_'
p194
(lp195
g188
asS'M_itp_c_'
p196
(lp197
g188
asS'M_idp_c_'
p198
(lp199
g188
assS'M_imp_m_'
p200
(dp201
S'M_idp_m_'
p202
(lp203
g200
asS'M_itp_m_'
p204
(lp205
g200
asS'M_didp_m_'
p206
(lp207
g200
asS'M_ditp_m_'
p208
(lp209
g200
assS'M_dtmp_m_'
p210
(dp211
S'M_dtdp_m_'
p212
(lp213
g210
asS'M_dttp_m_'
p214
(lp215
g210
assS'M_ump_m_'
p216
(dp217
S'M_utp_m_'
p218
(lp219
g216
asS'M_dutp_m_'
p220
(lp221
g216
asS'M_udp_m_'
p222
(lp223
g216
asS'M_dump_m_'
p224
(lp225
g216
asS'M_dudp_m_'
p226
(lp227
g216
assS'M_cmp_e_'
p228
(dp229
S'M_ctp_e_'
p230
(lp231
g228
asS'M_cdp_e_'
p232
(lp233
g228
assS'M_ump_n_'
p234
(dp235
S'M_dutp_n_'
p236
(lp237
g234
asS'M_udp_n_'
p238
(lp239
g234
asS'M_dudp_n_'
p240
(lp241
g234
asS'M_dump_n_'
p242
(lp243
g234
asS'M_utp_n_'
p244
(lp245
g234
assS'M_gmp_n_'
p246
(dp247
S'M_gtp_n_'
p248
(lp249
g246
asS'M_35cgmp_n_'
p250
(lp251
g246
asS'M_gdp_n_'
p252
(lp253
g246
asS'M_dgtp_n_'
p254
(lp255
g246
asS'M_dgdp_n_'
p256
(lp257
g246
assS'M_gmp_g_'
p258
(dp259
S'M_gdp_g_'
p260
(lp261
g258
asS'M_35cgmp_g_'
p262
(lp263
g258
assS'M_ump_g_'
p264
(dp265
S'M_udp_g_'
p266
(lp267
g264
assS'M_gmp_c_'
p268
(dp269
S'M_dgtp_c_'
p270
(lp271
g268
asS'M_gtp_c_'
p272
(lp273
g268
asS'M_dgmp_c_'
p274
(lp275
g268
asS'M_dgdp_c_'
p276
(lp277
g268
asS'M_35cgmp_c_'
p278
(lp279
g268
asS'M_gdp_c_'
p280
(lp281
g268
assS'M_ump_l_'
p282
(dp283
S'M_udp_l_'
p284
(lp285
g282
assS'M_imp_e_'
p286
(dp287
S'M_idp_e_'
p288
(lp289
g286
asS'M_itp_e_'
p290
(lp291
g286
asss.