(dp1
S'Othertrrxns'
p2
(lp3
S'R_ASNt6'
p4
aS'R_ASNt7'
p5
aS'R_CO2tv'
p6
aS'R_GLCNtv'
p7
aS'R_GLCtv'
p8
aS'R_GLNt6'
p9
aS'R_GLNt7'
p10
aS'R_H2Otv'
p11
aS'R_ILEt6'
p12
aS'R_ILEt7'
p13
aS'R_LEUt6'
p14
aS'R_LEUt7'
p15
aS'R_PEtv_SC'
p16
aS'R_PStv_SC'
p17
aS'R_TREt2v'
p18
aS'R_TYRt6'
p19
aS'R_TYRt7'
p20
aS'R_ACRNtp'
p21
aS'R_AKGtp'
p22
aS'R_ASPGLUtp'
p23
aS'R_ATP2tp_H'
p24
aS'R_ATPtp_H'
p25
aS'R_CITtap'
p26
aS'R_CRNCARtp'
p27
aS'R_CRNtp'
p28
aS'R_CYSTtp'
p29
aS'R_GLXtp'
p30
aS'R_H2Otp'
p31
aS'R_HCYSt2p'
p32
aS'R_MALOAAtp'
p33
aS'R_NH4tp'
p34
aS'R_PIt2p'
p35
aS'R_PYRt2p'
p36
aS'R_TRDOXtp'
p37
aS'R_TRDRDtp'
p38
aS'R_ASPt2n'
p39
aS'R_ASPt5n'
p40
aS'R_CO2tn'
p41
aS'R_H2Otn'
p42
aS'R_HCO3tn'
p43
aS'R_2DDA7Ptm'
p44
aS'R_2DHPtm'
p45
aS'R_2MBALDtm'
p46
aS'R_2MBTOHtm'
p47
aS'R_2MPPALtm'
p48
aS'R_2OBUTtm'
p49
aS'R_2OXOADPtim'
p50
aS'R_2PHETOHtm'
p51
aS'R_34HPPt2m'
p52
aS'R_3C3HMPtm'
p53
aS'R_3DH5HPBtm'
p54
aS'R_3MBALDtm'
p55
aS'R_3MOBtm'
p56
aS'R_3MOPtm'
p57
aS'R_3OPHB_5tm'
p58
aS'R_4ABZtm'
p59
aS'R_4HBZtm'
p60
aS'R_5AOPtm'
p61
aS'R_ACALDtm'
p62
aS'R_ACRNtm'
p63
aS'R_ACtm'
p64
aS'R_AHCYStm'
p65
aS'R_ALAtmi'
p66
aS'R_AMETtm'
p67
aS'R_ASPGLU2m'
p68
aS'R_ASPt2m'
p69
aS'R_ATPtm_H'
p70
aS'R_CITtam'
p71
aS'R_CITtbm'
p72
aS'R_CITtcm'
p73
aS'R_CO2tm'
p74
aS'R_COAtim'
p75
aS'R_CRNCARtm'
p76
aS'R_CRNtim'
p77
aS'R_CTPtm'
p78
aS'R_DHAPtm'
p79
aS'R_DHNPTtm'
p80
aS'R_DHPTtm'
p81
aS'R_D_LACt2m'
p82
aS'R_D_LACtm'
p83
aS'R_E4Ptm'
p84
aS'R_ETOHtm'
p85
aS'R_FE2utm'
p86
aS'R_FORtm'
p87
aS'R_FRDcm'
p88
aS'R_GCALDtm'
p89
aS'R_GLUt5m'
p90
aS'R_GLUt7m'
p91
aS'R_GLYC3Ptm'
p92
aS'R_GLYt2m'
p93
aS'R_GTPt2m'
p94
aS'R_H2Otm'
p95
aS'R_HMGCOAtm'
p96
aS'R_IAMOHtm'
p97
aS'R_IBUTOHtm'
p98
aS'R_ID3ACALDtm'
p99
aS'R_ILEtmi'
p100
aS'R_IND3ETHtm'
p101
aS'R_IPDPtm'
p102
aS'R_MALtm'
p103
aS'R_NH4tm'
p104
aS'R_O2tm'
p105
aS'R_OAAt2m'
p106
aS'R_ORNt3m'
p107
aS'R_PACALDtm'
p108
aS'R_PAN4Ptm'
p109
aS'R_PANTtm'
p110
aS'R_PAPtm'
p111
aS'R_PAtm_SC'
p112
aS'R_PENDPtm'
p113
aS'R_PEtm_SC'
p114
aS'R_PIt2m'
p115
aS'R_PIt5m'
p116
aS'R_PPPG9tm'
p117
aS'R_PROtm'
p118
aS'R_PStm_SC'
p119
aS'R_PYRt2m'
p120
aS'R_SERt2m'
p121
aS'R_SUCCtm'
p122
aS'R_SUCFUMtm'
p123
aS'R_THRt2m'
p124
aS'R_TYRt2m'
p125
aS'R_VALt2m'
p126
aS'R_6PGLter'
p127
aS'R_DOLPt2er'
p128
aS'R_ERGSTter'
p129
aS'R_ERGTETROLter'
p130
aS'R_G6Pter'
p131
aS'R_H2Oter'
p132
aS'R_MANNANter'
p133
aS'R_O2ter'
p134
aS'R_SQ23EPXter'
p135
aS'R_SQLter'
p136
as.