(dp1
S'nucleotide_conversions'
p2
(dp3
S'M_amp_m'
p4
(dp5
S'M_adp_m'
p6
(lp7
g4
asS'M_atp_m'
p8
(lp9
g4
assS'M_cmp_m'
p10
(dp11
S'M_ctp_m'
p12
(lp13
g10
asS'M_cdp_m'
p14
(lp15
g10
assS'M_amp_x'
p16
(dp17
S'M_atp_x'
p18
(lp19
g16
asS'M_adp_x'
p20
(lp21
g16
assS'M_dtmp_c'
p22
(dp23
S'M_dtdp_c'
p24
(lp25
g22
asS'M_dttp_c'
p26
(lp27
g22
assS'M_gmp_c'
p28
(dp29
S'M_dgmp_c'
p30
(lp31
g28
asS'M_dgtp_c'
p32
(lp33
g28
asS'M_gtp_c'
p34
(lp35
g28
asS'M_gdp_c'
p36
(lp37
g28
asS'M_dgdp_c'
p38
(lp39
g28
assS'M_ump_c'
p40
(dp41
S'M_udp_c'
p42
(lp43
g40
asS'M_utp_c'
p44
(lp45
g40
asS'M_dump_c'
p46
(lp47
g40
asS'M_dudp_c'
p48
(lp49
g40
asS'M_dutp_c'
p50
(lp51
g40
assS'M_cmp_c'
p52
(dp53
S'M_dcdp_c'
p54
(lp55
g52
asS'M_cdp_c'
p56
(lp57
g52
asS'M_ctp_c'
p58
(lp59
g52
asS'M_dcmp_c'
p60
(lp61
g52
asS'M_dctp_c'
p62
(lp63
g52
assS'M_amp_c'
p64
(dp65
S'M_atp_c'
p66
(lp67
g64
asS'M_damp_c'
p68
(lp69
g64
asS'M_adp_c'
p70
(lp71
g64
asS'M_datp_c'
p72
(lp73
g64
asS'M_dadp_c'
p74
(lp75
g64
asss.