(dp1
S'metabolite_mappings'
p2
(dp3
S'M_nadp_l_'
p4
(lp5
S'M_nadph_l_'
p6
asS'M_nadph_c_'
p7
(lp8
S'M_nadp_c_'
p9
asS'M_nad_c_'
p10
(lp11
S'M_nadh_c_'
p12
asS'M_nad_r_'
p13
(lp14
S'M_nadh_r_'
p15
asg15
(lp16
g13
asS'M_nadph_r_'
p17
(lp18
S'M_nadp_r_'
p19
asS'M_fadh2_m_'
p20
(lp21
S'M_fad_m_'
p22
asS'M_nadp_m_'
p23
(lp24
S'M_nadph_m_'
p25
asS'M_nadph_x_'
p26
(lp27
S'M_nadp_x_'
p28
asS'M_nad_x_'
p29
(lp30
S'M_nadh_x_'
p31
asg9
(lp32
g7
asS'M_fadh2_c_'
p33
(lp34
S'M_fad_c_'
p35
asg28
(lp36
g26
asS'M_fadh2_x_'
p37
(lp38
S'M_fad_x_'
p39
asg6
(lp40
g4
asg31
(lp41
g29
asg35
(lp42
g33
asg12
(lp43
g10
asg22
(lp44
g20
asS'M_nadph_n_'
p45
(lp46
S'M_nadp_n_'
p47
asg47
(lp48
g45
asg39
(lp49
g37
asS'M_fadh2_r_'
p50
(lp51
S'M_fad_r_'
p52
asg19
(lp53
g17
asS'M_nadh_m_'
p54
(lp55
S'M_nad_m_'
p56
asg52
(lp57
g50
asg56
(lp58
g54
asg25
(lp59
g23
ass.